target datalayout = "e-m:e-p270:32:32-p271:32:32-p272:64:64-i64:64-i128:128-f80:128-n8:16:32:64-S128"
target triple = "x86_64-pc-linux-gnu"

%struct.X509_pubkey_st = type { ptr, ptr, ptr, ptr, ptr, i8 }

@.str = private unnamed_addr constant [34 x i8] c"../openssl/crypto/x509/x_pubkey.c\00", align 1

; Function Attrs: nounwind uwtable
define internal void @x509_pubkey_ex_free(ptr noundef %0, ptr noundef %1) #0 {
  %3 = alloca ptr, align 8
  %4 = alloca ptr, align 8
  %5 = alloca ptr, align 8
  store ptr %0, ptr %3, align 8, !tbaa !31
  store ptr %1, ptr %4, align 8, !tbaa !33
  call void @llvm.lifetime.start.p0(i64 8, ptr %5) #5
  %6 = load ptr, ptr %3, align 8, !tbaa !31
  %7 = icmp ne ptr %6, null
  br i1 %7, label %8, label %27

8:                                                ; preds = %2
  %9 = load ptr, ptr %3, align 8, !tbaa !31
  %10 = load ptr, ptr %9, align 8, !tbaa !35
  store ptr %10, ptr %5, align 8, !tbaa !14
  %11 = icmp ne ptr %10, null
  br i1 %11, label %12, label %27

12:                                               ; preds = %8
  %13 = load ptr, ptr %5, align 8, !tbaa !14
  %14 = getelementptr inbounds nuw %struct.X509_pubkey_st, ptr %13, i32 0, i32 0
  %15 = load ptr, ptr %14, align 8, !tbaa !25
  call void @X509_ALGOR_free(ptr noundef %15)
  %16 = load ptr, ptr %5, align 8, !tbaa !14
  %17 = getelementptr inbounds nuw %struct.X509_pubkey_st, ptr %16, i32 0, i32 1
  %18 = load ptr, ptr %17, align 8, !tbaa !26
  call void @ASN1_BIT_STRING_free(ptr noundef %18)
  %19 = load ptr, ptr %5, align 8, !tbaa !14
  %20 = getelementptr inbounds nuw %struct.X509_pubkey_st, ptr %19, i32 0, i32 2
  %21 = load ptr, ptr %20, align 8, !tbaa !30
  call void @EVP_PKEY_free(ptr noundef %21)
  %22 = load ptr, ptr %5, align 8, !tbaa !14
  %23 = getelementptr inbounds nuw %struct.X509_pubkey_st, ptr %22, i32 0, i32 4
  %24 = load ptr, ptr %23, align 8, !tbaa !24
  call void @CRYPTO_free(ptr noundef %24, ptr noundef @.str, i32 noundef 94)
  %25 = load ptr, ptr %5, align 8, !tbaa !14
  call void @CRYPTO_free(ptr noundef %25, ptr noundef @.str, i32 noundef 95)
  %26 = load ptr, ptr %3, align 8, !tbaa !31
  store ptr null, ptr %26, align 8, !tbaa !35
  br label %27

27:                                               ; preds = %12, %8, %2
  call void @llvm.lifetime.end.p0(i64 8, ptr %5) #5
  ret void
}