; Function Attrs: nounwind uwtable
define internal void @x509_pubkey_ex_free(ptr noundef captures(address_is_null) %0, ptr readnone captures(none) %1) #0 {
  %.not = icmp eq ptr %0, null
  br i1 %.not, label %13, label %3

3:                                                ; preds = %2
  %4 = load ptr, ptr %0, align 8, !tbaa !24
  %.not9 = icmp eq ptr %4, null
  br i1 %.not9, label %13, label %5

5:                                                ; preds = %3
  %6 = load ptr, ptr %4, align 8, !tbaa !17
  tail call void @X509_ALGOR_free(ptr noundef %6) #9
  %7 = getelementptr inbounds nuw i8, ptr %4, i64 8
  %8 = load ptr, ptr %7, align 8, !tbaa !18
  tail call void @ASN1_BIT_STRING_free(ptr noundef %8) #9
  %9 = getelementptr inbounds nuw i8, ptr %4, i64 16
  %10 = load ptr, ptr %9, align 8, !tbaa !19
  tail call void @EVP_PKEY_free(ptr noundef %10) #9
  %11 = getelementptr inbounds nuw i8, ptr %4, i64 32
  %12 = load ptr, ptr %11, align 8, !tbaa !16
  tail call void @CRYPTO_free(ptr noundef %12, ptr noundef nonnull @.str, i32 noundef 94) #9
  tail call void @CRYPTO_free(ptr noundef nonnull %4, ptr noundef nonnull @.str, i32 noundef 95) #9
  store ptr null, ptr %0, align 8, !tbaa !24
  br label %13

13:                                               ; preds = %5, %3, %2
  ret void
}